target datalayout = "e-m:e-p270:32:32-p271:32:32-p272:64:64-i64:64-i128:128-f80:128-n8:16:32:64-S128"
target triple = "x86_64-pc-linux-gnu"

%struct.archive_string = type { ptr, i64, i64 }

; Function Attrs: nounwind uwtable
define internal void @pax_time(ptr noundef %0, i64 noundef %1, ptr noundef %2, ptr noundef %3) #0 {
  %5 = alloca ptr, align 8
  %6 = alloca i64, align 8
  %7 = alloca ptr, align 8
  %8 = alloca ptr, align 8
  %9 = alloca i8, align 1
  %10 = alloca i64, align 8
  %11 = alloca i64, align 8
  %12 = alloca i32, align 4
  %13 = alloca i64, align 8
  %14 = alloca i64, align 8
  %15 = alloca i32, align 4
  store ptr %0, ptr %5, align 8, !tbaa !15
  store i64 %1, ptr %6, align 8, !tbaa !46
  store ptr %2, ptr %7, align 8, !tbaa !66
  store ptr %3, ptr %8, align 8, !tbaa !66
  call void @llvm.lifetime.start.p0(i64 1, ptr %9) #10
  call void @llvm.lifetime.start.p0(i64 8, ptr %10) #10
  call void @llvm.lifetime.start.p0(i64 8, ptr %11) #10
  call void @llvm.lifetime.start.p0(i64 4, ptr %12) #10
  call void @llvm.lifetime.start.p0(i64 8, ptr %13) #10
  call void @llvm.lifetime.start.p0(i64 8, ptr %14) #10
  store i64 922337203685477580, ptr %13, align 8, !tbaa !46
  store i64 7, ptr %14, align 8, !tbaa !46
  %16 = load i64, ptr %6, align 8, !tbaa !46
  %17 = icmp ule i64 %16, 0
  br i1 %17, label %18, label %20

18:                                               ; preds = %4
  %19 = load ptr, ptr %7, align 8, !tbaa !66
  store i64 0, ptr %19, align 8, !tbaa !46
  store i32 1, ptr %15, align 4
  br label %126

20:                                               ; preds = %4
  store i64 0, ptr %10, align 8, !tbaa !46
  store i32 1, ptr %12, align 4, !tbaa !9
  %21 = load ptr, ptr %5, align 8, !tbaa !15
  %22 = load i8, ptr %21, align 1, !tbaa !17
  %23 = sext i8 %22 to i32
  %24 = icmp eq i32 %23, 45
  br i1 %24, label %25, label %30

25:                                               ; preds = %20
  store i32 -1, ptr %12, align 4, !tbaa !9
  %26 = load ptr, ptr %5, align 8, !tbaa !15
  %27 = getelementptr inbounds nuw i8, ptr %26, i32 1
  store ptr %27, ptr %5, align 8, !tbaa !15
  %28 = load i64, ptr %6, align 8, !tbaa !46
  %29 = add i64 %28, -1
  store i64 %29, ptr %6, align 8, !tbaa !46
  br label %30

30:                                               ; preds = %25, %20
  br label %31

31:                                               ; preds = %65, %30
  %32 = load i64, ptr %6, align 8, !tbaa !46
  %33 = icmp ugt i64 %32, 0
  br i1 %33, label %34, label %44

34:                                               ; preds = %31
  %35 = load ptr, ptr %5, align 8, !tbaa !15
  %36 = load i8, ptr %35, align 1, !tbaa !17
  %37 = sext i8 %36 to i32
  %38 = icmp sge i32 %37, 48
  br i1 %38, label %39, label %44

39:                                               ; preds = %34
  %40 = load ptr, ptr %5, align 8, !tbaa !15
  %41 = load i8, ptr %40, align 1, !tbaa !17
  %42 = sext i8 %41 to i32
  %43 = icmp sle i32 %42, 57
  br label %44

44:                                               ; preds = %39, %34, %31
  %45 = phi i1 [ false, %34 ], [ false, %31 ], [ %43, %39 ]
  br i1 %45, label %46, label %75

46:                                               ; preds = %44
  %47 = load ptr, ptr %5, align 8, !tbaa !15
  %48 = load i8, ptr %47, align 1, !tbaa !17
  %49 = sext i8 %48 to i32
  %50 = sub nsw i32 %49, 48
  %51 = trunc i32 %50 to i8
  store i8 %51, ptr %9, align 1, !tbaa !17
  %52 = load i64, ptr %10, align 8, !tbaa !46
  %53 = load i64, ptr %13, align 8, !tbaa !46
  %54 = icmp sgt i64 %52, %53
  br i1 %54, label %64, label %55

55:                                               ; preds = %46
  %56 = load i64, ptr %10, align 8, !tbaa !46
  %57 = load i64, ptr %13, align 8, !tbaa !46
  %58 = icmp eq i64 %56, %57
  br i1 %58, label %59, label %65

59:                                               ; preds = %55
  %60 = load i8, ptr %9, align 1, !tbaa !17
  %61 = sext i8 %60 to i64
  %62 = load i64, ptr %14, align 8, !tbaa !46
  %63 = icmp sgt i64 %61, %62
  br i1 %63, label %64, label %65

64:                                               ; preds = %59, %46
  store i64 9223372036854775807, ptr %10, align 8, !tbaa !46
  br label %75

65:                                               ; preds = %59, %55
  %66 = load i64, ptr %10, align 8, !tbaa !46
  %67 = mul nsw i64 %66, 10
  %68 = load i8, ptr %9, align 1, !tbaa !17
  %69 = sext i8 %68 to i64
  %70 = add nsw i64 %67, %69
  store i64 %70, ptr %10, align 8, !tbaa !46
  %71 = load ptr, ptr %5, align 8, !tbaa !15
  %72 = getelementptr inbounds nuw i8, ptr %71, i32 1
  store ptr %72, ptr %5, align 8, !tbaa !15
  %73 = load i64, ptr %6, align 8, !tbaa !46
  %74 = add i64 %73, -1
  store i64 %74, ptr %6, align 8, !tbaa !46
  br label %31, !llvm.loop !124

75:                                               ; preds = %64, %44
  %76 = load i64, ptr %10, align 8, !tbaa !46
  %77 = load i32, ptr %12, align 4, !tbaa !9
  %78 = sext i32 %77 to i64
  %79 = mul nsw i64 %76, %78
  %80 = load ptr, ptr %7, align 8, !tbaa !66
  store i64 %79, ptr %80, align 8, !tbaa !46
  %81 = load ptr, ptr %8, align 8, !tbaa !66
  store i64 0, ptr %81, align 8, !tbaa !46
  %82 = load i64, ptr %6, align 8, !tbaa !46
  %83 = icmp ule i64 %82, 0
  br i1 %83, label %89, label %84

84:                                               ; preds = %75
  %85 = load ptr, ptr %5, align 8, !tbaa !15
  %86 = load i8, ptr %85, align 1, !tbaa !17
  %87 = sext i8 %86 to i32
  %88 = icmp ne i32 %87, 46
  br i1 %88, label %89, label %90

89:                                               ; preds = %84, %75
  store i32 1, ptr %15, align 4
  br label %126

90:                                               ; preds = %84
  store i64 100000000, ptr %11, align 8, !tbaa !46
  br label %91

91:                                               ; preds = %121, %90
  %92 = load ptr, ptr %5, align 8, !tbaa !15
  %93 = getelementptr inbounds nuw i8, ptr %92, i32 1
  store ptr %93, ptr %5, align 8, !tbaa !15
  %94 = load i64, ptr %6, align 8, !tbaa !46
  %95 = add i64 %94, -1
  store i64 %95, ptr %6, align 8, !tbaa !46
  %96 = load i64, ptr %6, align 8, !tbaa !46
  %97 = icmp ugt i64 %96, 0
  br i1 %97, label %98, label %119

98:                                               ; preds = %91
  %99 = load ptr, ptr %5, align 8, !tbaa !15
  %100 = load i8, ptr %99, align 1, !tbaa !17
  %101 = sext i8 %100 to i32
  %102 = icmp sge i32 %101, 48
  br i1 %102, label %103, label %119

103:                                              ; preds = %98
  %104 = load ptr, ptr %5, align 8, !tbaa !15
  %105 = load i8, ptr %104, align 1, !tbaa !17
  %106 = sext i8 %105 to i32
  %107 = icmp sle i32 %106, 57
  br i1 %107, label %108, label %119

108:                                              ; preds = %103
  %109 = load ptr, ptr %5, align 8, !tbaa !15
  %110 = load i8, ptr %109, align 1, !tbaa !17
  %111 = sext i8 %110 to i32
  %112 = sub nsw i32 %111, 48
  %113 = sext i32 %112 to i64
  %114 = load i64, ptr %11, align 8, !tbaa !46
  %115 = mul i64 %113, %114
  %116 = load ptr, ptr %8, align 8, !tbaa !66
  %117 = load i64, ptr %116, align 8, !tbaa !46
  %118 = add i64 %117, %115
  store i64 %118, ptr %116, align 8, !tbaa !46
  br label %120

119:                                              ; preds = %103, %98, %91
  br label %125

120:                                              ; preds = %108
  br label %121

121:                                              ; preds = %120
  %122 = load i64, ptr %11, align 8, !tbaa !46
  %123 = udiv i64 %122, 10
  store i64 %123, ptr %11, align 8, !tbaa !46
  %124 = icmp ne i64 %123, 0
  br i1 %124, label %91, label %125, !llvm.loop !125

125:                                              ; preds = %121, %119
  store i32 0, ptr %15, align 4
  br label %126

126:                                              ; preds = %125, %89, %18
  call void @llvm.lifetime.end.p0(i64 8, ptr %14) #10
  call void @llvm.lifetime.end.p0(i64 8, ptr %13) #10
  call void @llvm.lifetime.end.p0(i64 4, ptr %12) #10
  call void @llvm.lifetime.end.p0(i64 8, ptr %11) #10
  call void @llvm.lifetime.end.p0(i64 8, ptr %10) #10
  call void @llvm.lifetime.end.p0(i64 1, ptr %9) #10
  %127 = load i32, ptr %15, align 4
  switch i32 %127, label %129 [
    i32 0, label %128
    i32 1, label %128
  ]

128:                                              ; preds = %126, %126
  ret void

129:                                              ; preds = %126
  unreachable
}

; Function Attrs: nounwind uwtable
define internal i32 @pax_attribute_read_time(ptr noundef %0, i64 noundef %1, ptr noundef %2, ptr noundef %3, ptr noundef %4) #0 {
  %6 = alloca i32, align 4
  %7 = alloca ptr, align 8
  %8 = alloca i64, align 8
  %9 = alloca ptr, align 8
  %10 = alloca ptr, align 8
  %11 = alloca ptr, align 8
  %12 = alloca %struct.archive_string, align 8
  %13 = alloca i32, align 4
  %14 = alloca i32, align 4
  store ptr %0, ptr %7, align 8, !tbaa !11
  store i64 %1, ptr %8, align 8, !tbaa !46
  store ptr %2, ptr %9, align 8, !tbaa !66
  store ptr %3, ptr %10, align 8, !tbaa !66
  store ptr %4, ptr %11, align 8, !tbaa !66
  call void @llvm.lifetime.start.p0(i64 24, ptr %12) #10
  call void @llvm.lifetime.start.p0(i64 4, ptr %13) #10
  %15 = load i64, ptr %8, align 8, !tbaa !46
  %16 = icmp ugt i64 %15, 128
  br i1 %16, label %17, label %23

17:                                               ; preds = %5
  %18 = load ptr, ptr %7, align 8, !tbaa !11
  %19 = load i64, ptr %8, align 8, !tbaa !46
  %20 = call i64 @__archive_read_consume(ptr noundef %18, i64 noundef %19)
  %21 = load ptr, ptr %9, align 8, !tbaa !66
  store i64 0, ptr %21, align 8, !tbaa !46
  %22 = load ptr, ptr %10, align 8, !tbaa !66
  store i64 0, ptr %22, align 8, !tbaa !46
  store i32 -30, ptr %6, align 4
  store i32 1, ptr %14, align 4
  br label %54

23:                                               ; preds = %5
  br label %24

24:                                               ; preds = %23
  %25 = getelementptr inbounds nuw %struct.archive_string, ptr %12, i32 0, i32 0
  store ptr null, ptr %25, align 8, !tbaa !102
  %26 = getelementptr inbounds nuw %struct.archive_string, ptr %12, i32 0, i32 1
  store i64 0, ptr %26, align 8, !tbaa !103
  %27 = getelementptr inbounds nuw %struct.archive_string, ptr %12, i32 0, i32 2
  store i64 0, ptr %27, align 8, !tbaa !104
  br label %28

28:                                               ; preds = %24
  br label %29

29:                                               ; preds = %28
  %30 = load ptr, ptr %7, align 8, !tbaa !11
  %31 = load i64, ptr %8, align 8, !tbaa !46
  %32 = load ptr, ptr %11, align 8, !tbaa !66
  %33 = call i32 @read_bytes_to_string(ptr noundef %30, ptr noundef %12, i64 noundef %31, ptr noundef %32)
  store i32 %33, ptr %13, align 4, !tbaa !9
  %34 = load i32, ptr %13, align 4, !tbaa !9
  %35 = icmp slt i32 %34, 0
  br i1 %35, label %36, label %38

36:                                               ; preds = %29
  call void @archive_string_free(ptr noundef %12)
  %37 = load i32, ptr %13, align 4, !tbaa !9
  store i32 %37, ptr %6, align 4
  store i32 1, ptr %14, align 4
  br label %54

38:                                               ; preds = %29
  %39 = getelementptr inbounds nuw %struct.archive_string, ptr %12, i32 0, i32 0
  %40 = load ptr, ptr %39, align 8, !tbaa !102
  %41 = getelementptr inbounds nuw %struct.archive_string, ptr %12, i32 0, i32 1
  %42 = load i64, ptr %41, align 8, !tbaa !103
  %43 = load ptr, ptr %9, align 8, !tbaa !66
  %44 = load ptr, ptr %10, align 8, !tbaa !66
  call void @pax_time(ptr noundef %40, i64 noundef %42, ptr noundef %43, ptr noundef %44)
  call void @archive_string_free(ptr noundef %12)
  %45 = load ptr, ptr %9, align 8, !tbaa !66
  %46 = load i64, ptr %45, align 8, !tbaa !46
  %47 = icmp slt i64 %46, 0
  br i1 %47, label %52, label %48

48:                                               ; preds = %38
  %49 = load ptr, ptr %9, align 8, !tbaa !66
  %50 = load i64, ptr %49, align 8, !tbaa !46
  %51 = icmp eq i64 %50, 9223372036854775807
  br i1 %51, label %52, label %53

52:                                               ; preds = %48, %38
  store i32 -20, ptr %6, align 4
  store i32 1, ptr %14, align 4
  br label %54

53:                                               ; preds = %48
  store i32 0, ptr %6, align 4
  store i32 1, ptr %14, align 4
  br label %54

54:                                               ; preds = %53, %52, %36, %17
  call void @llvm.lifetime.end.p0(i64 4, ptr %13) #10
  call void @llvm.lifetime.end.p0(i64 24, ptr %12) #10
  %55 = load i32, ptr %6, align 4
  ret i32 %55
}