; Function Attrs: nounwind uwtable
define internal fastcc range(i32 -30, 1) i32 @pax_attribute_read_time(ptr noundef %0, i64 noundef %1, ptr noundef nonnull captures(none) %2, ptr noundef nonnull writeonly captures(none) %3, ptr noundef nonnull captures(none) %4) unnamed_addr #0 {
  %6 = alloca %struct.archive_string, align 8
  call void @llvm.lifetime.start.p0(i64 24, ptr nonnull %6) #13
  %7 = icmp ugt i64 %1, 128
  br i1 %7, label %8, label %10

8:                                                ; preds = %5
  %9 = tail call i64 @__archive_read_consume(ptr noundef %0, i64 noundef %1) #13
  store i64 0, ptr %2, align 8, !tbaa !45
  store i64 0, ptr %3, align 8, !tbaa !45
  br label %51

10:                                               ; preds = %5
  call void @llvm.memset.p0.i64(ptr noundef nonnull align 8 dereferenceable(24) %6, i8 0, i64 24, i1 false)
  %11 = call fastcc i32 @read_bytes_to_string(ptr noundef %0, ptr noundef nonnull %6, i64 noundef %1, ptr noundef %4)
  %12 = icmp slt i32 %11, 0
  br i1 %12, label %13, label %14

13:                                               ; preds = %10
  call void @archive_string_free(ptr noundef nonnull %6) #13
  br label %51

14:                                               ; preds = %10
  %15 = getelementptr inbounds nuw i8, ptr %6, i64 8
  %16 = load ptr, ptr %6, align 8, !tbaa !66
  %17 = load i64, ptr %15, align 8, !tbaa !67
  %18 = icmp eq i64 %17, 0
  br i1 %18, label %.loopexit.sink.split.i, label %19

19:                                               ; preds = %14
  %20 = load i8, ptr %16, align 1, !tbaa !4
  %21 = icmp eq i8 %20, 45
  %.036.i = select i1 %21, i64 -1, i64 1
  %22 = sext i1 %21 to i64
  %spec.select.i = add i64 %17, %22
  %.not56.i = icmp eq i64 %spec.select.i, 0
  br i1 %.not56.i, label %.critedge.i, label %.lr.ph.preheader.i

.lr.ph.preheader.i:                               ; preds = %19
  %spec.select52.idx.i = zext i1 %21 to i64
  %spec.select52.i = getelementptr inbounds nuw i8, ptr %16, i64 %spec.select52.idx.i
  br label %.lr.ph.i

.lr.ph.i:                                         ; preds = %select.unfold.i, %.lr.ph.preheader.i
  %.159.i = phi ptr [ %33, %select.unfold.i ], [ %spec.select52.i, %.lr.ph.preheader.i ]
  %.13458.i = phi i64 [ %34, %select.unfold.i ], [ %spec.select.i, %.lr.ph.preheader.i ]
  %.03857.i = phi i64 [ %32, %select.unfold.i ], [ 0, %.lr.ph.preheader.i ]
  %23 = load i8, ptr %.159.i, align 1, !tbaa !4
  %24 = add i8 %23, -48
  %or.cond.i = icmp ult i8 %24, 10
  br i1 %or.cond.i, label %25, label %36

25:                                               ; preds = %.lr.ph.i
  %26 = icmp sgt i64 %.03857.i, 922337203685477580
  br i1 %26, label %36, label %27

27:                                               ; preds = %25
  %28 = icmp eq i64 %.03857.i, 922337203685477580
  %29 = icmp samesign ugt i8 %24, 7
  %or.cond49.i = select i1 %28, i1 %29, i1 false
  br i1 %or.cond49.i, label %36, label %select.unfold.i

select.unfold.i:                                  ; preds = %27
  %30 = mul nsw i64 %.03857.i, 10
  %31 = zext nneg i8 %24 to i64
  %32 = add nsw i64 %30, %31
  %33 = getelementptr inbounds nuw i8, ptr %.159.i, i64 1
  %34 = add i64 %.13458.i, -1
  %.not.i = icmp eq i64 %34, 0
  br i1 %.not.i, label %.critedge.i, label %.lr.ph.i, !llvm.loop !102

.critedge.i:                                      ; preds = %select.unfold.i, %19
  %.038.lcssa.i = phi i64 [ 0, %19 ], [ %32, %select.unfold.i ]
  %35 = mul nsw i64 %.038.lcssa.i, %.036.i
  store i64 %35, ptr %2, align 8, !tbaa !45
  br label %.loopexit.sink.split.i

36:                                               ; preds = %27, %25, %.lr.ph.i
  %.139.ph.i = phi i64 [ 9223372036854775807, %25 ], [ 9223372036854775807, %27 ], [ %.03857.i, %.lr.ph.i ]
  %37 = mul nsw i64 %.139.ph.i, %.036.i
  store i64 %37, ptr %2, align 8, !tbaa !45
  store i64 0, ptr %3, align 8, !tbaa !45
  %38 = load i8, ptr %.159.i, align 1, !tbaa !4
  %.not45.i = icmp eq i8 %38, 46
  br i1 %.not45.i, label %.preheader.i, label %pax_time.exit

.preheader.i:                                     ; preds = %36, %45
  %39 = phi i64 [ %48, %45 ], [ 0, %36 ]
  %.037.i = phi i64 [ %49, %45 ], [ 100000000, %36 ]
  %.235.i = phi i64 [ %41, %45 ], [ %.13458.i, %36 ]
  %.2.i = phi ptr [ %40, %45 ], [ %.159.i, %36 ]
  %40 = getelementptr inbounds nuw i8, ptr %.2.i, i64 1
  %41 = add i64 %.235.i, -1
  %.not46.i = icmp eq i64 %41, 0
  br i1 %.not46.i, label %pax_time.exit, label %42

42:                                               ; preds = %.preheader.i
  %43 = load i8, ptr %40, align 1, !tbaa !4
  %44 = add i8 %43, -48
  %or.cond50.i = icmp ult i8 %44, 10
  br i1 %or.cond50.i, label %45, label %pax_time.exit

45:                                               ; preds = %42
  %46 = zext nneg i8 %44 to i64
  %47 = mul nuw nsw i64 %.037.i, %46
  %48 = add i64 %47, %39
  store i64 %48, ptr %3, align 8, !tbaa !45
  %49 = udiv i64 %.037.i, 10
  %.not48.i = icmp samesign ult i64 %.037.i, 10
  br i1 %.not48.i, label %pax_time.exit, label %.preheader.i, !llvm.loop !103

.loopexit.sink.split.i:                           ; preds = %.critedge.i, %14
  %.sink.i = phi ptr [ %3, %.critedge.i ], [ %2, %14 ]
  store i64 0, ptr %.sink.i, align 8, !tbaa !45
  br label %pax_time.exit

pax_time.exit:                                    ; preds = %.preheader.i, %42, %45, %36, %.loopexit.sink.split.i
  call void @archive_string_free(ptr noundef nonnull %6) #13
  %50 = load i64, ptr %2, align 8, !tbaa !45
  %or.cond = icmp ugt i64 %50, 9223372036854775806
  %spec.select = select i1 %or.cond, i32 -20, i32 0
  br label %51

51:                                               ; preds = %pax_time.exit, %13, %8
  %.0 = phi i32 [ -30, %8 ], [ %11, %13 ], [ %spec.select, %pax_time.exit ]
  call void @llvm.lifetime.end.p0(i64 24, ptr nonnull %6) #13
  ret i32 %.0
}